target datalayout = "e-m:e-p270:32:32-p271:32:32-p272:64:64-i64:64-i128:128-f80:128-n8:16:32:64-S128"
target triple = "x86_64-unknown-linux-gnu"

%struct.PCIDevice = type { %struct.DeviceState, i8, i8, ptr, ptr, ptr, ptr, ptr, i32, %struct.PCIReqIDCache, [64 x i8], [7 x %struct.PCIIORegion], %struct.AddressSpace, %struct.MemoryRegion, %struct.MemoryRegion, ptr, ptr, [3 x ptr], i8, i8, i32, i8, i32, ptr, ptr, ptr, ptr, ptr, ptr, %struct.MemoryRegion, %struct.MemoryRegion, %struct.MemoryRegion, ptr, i8, i32, i8, %struct.PCIExpressDevice, ptr, ptr, i32, i8, %struct.MemoryRegion, i32, ptr, ptr, ptr, ptr, ptr, i32 }
%struct.DeviceState = type { %struct.Object, ptr, ptr, i8, i8, i64, ptr, i32, i8, ptr, %struct.NamedGPIOListHead, %struct.NamedClockListHead, %struct.BusStateHead, i32, i32, i32, %struct.ResettableState, ptr, %struct.MemReentrancyGuard }
%struct.Object = type { ptr, ptr, ptr, i32, ptr }
%struct.NamedGPIOListHead = type { ptr }
%struct.NamedClockListHead = type { ptr }
%struct.BusStateHead = type { ptr }
%struct.ResettableState = type { i32, i8, i8 }
%struct.MemReentrancyGuard = type { i8 }
%struct.PCIReqIDCache = type { ptr, i32 }
%struct.PCIIORegion = type { i64, i64, i8, ptr, ptr }
%struct.AddressSpace = type { %struct.rcu_head, ptr, ptr, ptr, i32, i32, ptr, %union.anon, %union.anon.0 }
%struct.rcu_head = type { ptr, ptr }
%union.anon = type { %struct.QTailQLink }
%struct.QTailQLink = type { ptr, ptr }
%union.anon.0 = type { %struct.QTailQLink }
%struct.PCIExpressDevice = type { i8, i8, i8, i16, %struct.PCIEAERLog, i16, i16, i16, %struct.PCIESriovPF, %struct.PCIESriovVF }
%struct.PCIEAERLog = type { i16, i16, ptr }
%struct.PCIESriovPF = type { i16, [7 x i8], ptr, ptr }
%struct.PCIESriovVF = type { ptr, i16 }
%struct.MemoryRegion = type { %struct.Object, i8, i8, i8, i8, i8, i8, i8, i8, i8, i8, ptr, ptr, ptr, ptr, ptr, ptr, i32, i128, i64, ptr, i64, i8, i8, i8, i8, i8, ptr, i64, i32, %union.anon.1, %union.anon.2, %union.anon.3, ptr, i32, ptr, ptr, i8 }
%union.anon.1 = type { %struct.QTailQLink }
%union.anon.2 = type { %struct.QTailQLink }
%union.anon.3 = type { %struct.QTailQLink }
%struct.IVShmemState = type { %struct.PCIDevice, i32, ptr, %struct.CharBackend, i32, i32, i32, %struct.MemoryRegion, ptr, %struct.MemoryRegion, ptr, i32, i32, ptr, i64, i32, i32, ptr }
%struct.CharBackend = type { ptr, ptr, ptr, ptr, ptr, ptr, i32, i32 }
%struct.Peer = type { i32, ptr }
%struct.EventNotifier = type { i32, i32, i8 }

; Function Attrs: nounwind sspstrong uwtable
define internal void @ivshmem_IntrStatus_write(ptr noundef %s, i32 noundef %val) #0 {
entry:
  %s.addr = alloca ptr, align 8
  %val.addr = alloca i32, align 4
  store ptr %s, ptr %s.addr, align 8
  store i32 %val, ptr %val.addr, align 4
  br label %do.body

do.body:                                          ; preds = %entry
  br label %do.end

do.end:                                           ; preds = %do.body
  %0 = load i32, ptr %val.addr, align 4
  %1 = load ptr, ptr %s.addr, align 8
  %intrstatus = getelementptr inbounds %struct.IVShmemState, ptr %1, i32 0, i32 5
  store i32 %0, ptr %intrstatus, align 4
  ret void
}

; Function Attrs: nounwind sspstrong uwtable
define internal void @ivshmem_IntrMask_write(ptr noundef %s, i32 noundef %val) #0 {
entry:
  %s.addr = alloca ptr, align 8
  %val.addr = alloca i32, align 4
  store ptr %s, ptr %s.addr, align 8
  store i32 %val, ptr %val.addr, align 4
  br label %do.body

do.body:                                          ; preds = %entry
  br label %do.end

do.end:                                           ; preds = %do.body
  %0 = load i32, ptr %val.addr, align 4
  %1 = load ptr, ptr %s.addr, align 8
  %intrmask = getelementptr inbounds %struct.IVShmemState, ptr %1, i32 0, i32 4
  store i32 %0, ptr %intrmask, align 8
  ret void
}

; Function Attrs: nounwind sspstrong uwtable
define internal void @ivshmem_io_write(ptr noundef %opaque, i64 noundef %addr, i64 noundef %val, i32 noundef %size) #0 {
entry:
  %opaque.addr = alloca ptr, align 8
  %addr.addr = alloca i64, align 8
  %val.addr = alloca i64, align 8
  %size.addr = alloca i32, align 4
  %s = alloca ptr, align 8
  %dest = alloca i16, align 2
  %vector = alloca i16, align 2
  store ptr %opaque, ptr %opaque.addr, align 8
  store i64 %addr, ptr %addr.addr, align 8
  store i64 %val, ptr %val.addr, align 8
  store i32 %size, ptr %size.addr, align 4
  %0 = load ptr, ptr %opaque.addr, align 8
  store ptr %0, ptr %s, align 8
  %1 = load i64, ptr %val.addr, align 8
  %shr = lshr i64 %1, 16
  %conv = trunc i64 %shr to i16
  store i16 %conv, ptr %dest, align 2
  %2 = load i64, ptr %val.addr, align 8
  %and = and i64 %2, 255
  %conv1 = trunc i64 %and to i16
  store i16 %conv1, ptr %vector, align 2
  %3 = load i64, ptr %addr.addr, align 8
  %and2 = and i64 %3, 252
  store i64 %and2, ptr %addr.addr, align 8
  br label %do.body

do.body:                                          ; preds = %entry
  br label %do.end

do.end:                                           ; preds = %do.body
  %4 = load i64, ptr %addr.addr, align 8
  switch i64 %4, label %sw.default [
    i64 0, label %sw.bb
    i64 4, label %sw.bb4
    i64 12, label %sw.bb6
  ]

sw.bb:                                            ; preds = %do.end
  %5 = load ptr, ptr %s, align 8
  %6 = load i64, ptr %val.addr, align 8
  %conv3 = trunc i64 %6 to i32
  call void @ivshmem_IntrMask_write(ptr noundef %5, i32 noundef %conv3)
  br label %sw.epilog

sw.bb4:                                           ; preds = %do.end
  %7 = load ptr, ptr %s, align 8
  %8 = load i64, ptr %val.addr, align 8
  %conv5 = trunc i64 %8 to i32
  call void @ivshmem_IntrStatus_write(ptr noundef %7, i32 noundef %conv5)
  br label %sw.epilog

sw.bb6:                                           ; preds = %do.end
  %9 = load i16, ptr %dest, align 2
  %conv7 = zext i16 %9 to i32
  %10 = load ptr, ptr %s, align 8
  %nb_peers = getelementptr inbounds %struct.IVShmemState, ptr %10, i32 0, i32 11
  %11 = load i32, ptr %nb_peers, align 8
  %cmp = icmp sge i32 %conv7, %11
  br i1 %cmp, label %if.then, label %if.end

if.then:                                          ; preds = %sw.bb6
  br label %do.body9

do.body9:                                         ; preds = %if.then
  br label %do.end10

do.end10:                                         ; preds = %do.body9
  br label %sw.epilog

if.end:                                           ; preds = %sw.bb6
  %12 = load i16, ptr %vector, align 2
  %conv11 = zext i16 %12 to i32
  %13 = load ptr, ptr %s, align 8
  %peers = getelementptr inbounds %struct.IVShmemState, ptr %13, i32 0, i32 10
  %14 = load ptr, ptr %peers, align 16
  %15 = load i16, ptr %dest, align 2
  %idxprom = zext i16 %15 to i64
  %arrayidx = getelementptr %struct.Peer, ptr %14, i64 %idxprom
  %nb_eventfds = getelementptr inbounds %struct.Peer, ptr %arrayidx, i32 0, i32 0
  %16 = load i32, ptr %nb_eventfds, align 8
  %cmp12 = icmp slt i32 %conv11, %16
  br i1 %cmp12, label %if.then14, label %if.else

if.then14:                                        ; preds = %if.end
  br label %do.body15

do.body15:                                        ; preds = %if.then14
  br label %do.end16

do.end16:                                         ; preds = %do.body15
  %17 = load ptr, ptr %s, align 8
  %peers17 = getelementptr inbounds %struct.IVShmemState, ptr %17, i32 0, i32 10
  %18 = load ptr, ptr %peers17, align 16
  %19 = load i16, ptr %dest, align 2
  %idxprom18 = zext i16 %19 to i64
  %arrayidx19 = getelementptr %struct.Peer, ptr %18, i64 %idxprom18
  %eventfds = getelementptr inbounds %struct.Peer, ptr %arrayidx19, i32 0, i32 1
  %20 = load ptr, ptr %eventfds, align 8
  %21 = load i16, ptr %vector, align 2
  %idxprom20 = zext i16 %21 to i64
  %arrayidx21 = getelementptr %struct.EventNotifier, ptr %20, i64 %idxprom20
  %call = call i32 @event_notifier_set(ptr noundef %arrayidx21)
  br label %if.end24

if.else:                                          ; preds = %if.end
  br label %do.body22

do.body22:                                        ; preds = %if.else
  br label %do.end23

do.end23:                                         ; preds = %do.body22
  br label %if.end24

if.end24:                                         ; preds = %do.end23, %do.end16
  br label %sw.epilog

sw.default:                                       ; preds = %do.end
  br label %do.body25

do.body25:                                        ; preds = %sw.default
  br label %do.end26

do.end26:                                         ; preds = %do.body25
  br label %sw.epilog

sw.epilog:                                        ; preds = %do.end26, %if.end24, %do.end10, %sw.bb4, %sw.bb
  ret void
}