; Function Attrs: nounwind sspstrong uwtable
define internal void @ivshmem_io_write(ptr noundef captures(none) %opaque, i64 noundef %addr, i64 noundef %val, i32 %size) #0 {
entry:
  %shr = lshr i64 %val, 16
  %0 = trunc i64 %val to i32
  %conv1 = and i32 %0, 255
  %1 = trunc i64 %addr to i8
  %trunc = and i8 %1, -4
  switch i8 %trunc, label %sw.epilog [
    i8 0, label %sw.bb
    i8 4, label %sw.bb4
    i8 12, label %sw.bb6
  ]

sw.bb:                                            ; preds = %entry
  %intrmask.i = getelementptr inbounds nuw i8, ptr %opaque, i64 2680
  store i32 %0, ptr %intrmask.i, align 8
  br label %sw.epilog

sw.bb4:                                           ; preds = %entry
  %intrstatus.i = getelementptr inbounds nuw i8, ptr %opaque, i64 2684
  store i32 %0, ptr %intrstatus.i, align 4
  br label %sw.epilog

sw.bb6:                                           ; preds = %entry
  %2 = trunc i64 %shr to i32
  %conv7 = and i32 %2, 65535
  %nb_peers = getelementptr inbounds nuw i8, ptr %opaque, i64 3272
  %3 = load i32, ptr %nb_peers, align 8
  %cmp.not = icmp slt i32 %conv7, %3
  br i1 %cmp.not, label %if.end, label %sw.epilog

if.end:                                           ; preds = %sw.bb6
  %peers = getelementptr inbounds nuw i8, ptr %opaque, i64 3264
  %4 = load ptr, ptr %peers, align 16
  %idxprom = and i64 %shr, 65535
  %arrayidx = getelementptr %struct.Peer, ptr %4, i64 %idxprom
  %5 = load i32, ptr %arrayidx, align 8
  %cmp12 = icmp sgt i32 %5, %conv1
  br i1 %cmp12, label %do.end16, label %sw.epilog

do.end16:                                         ; preds = %if.end
  %eventfds = getelementptr inbounds nuw i8, ptr %arrayidx, i64 8
  %6 = load ptr, ptr %eventfds, align 8
  %idxprom20 = and i64 %val, 255
  %arrayidx21 = getelementptr %struct.EventNotifier, ptr %6, i64 %idxprom20
  %call = tail call i32 @event_notifier_set(ptr noundef %arrayidx21) #11
  br label %sw.epilog

sw.epilog:                                        ; preds = %entry, %do.end16, %if.end, %sw.bb6, %sw.bb4, %sw.bb
  ret void
}